(lp0
(lp1
(lp2
(lp3
(lp4
(lp5
(lp6
(lp7
S'c'
p8
a(lp9
(lp10
S'a'
p11
aaS'e'
p12
a(lp13
(lp14
S's'
p15
aag11
a(lp16
S'r'
p17
aaaaag12
a(lp18
(lp19
(lp20
g15
aaS't'
p21
a(lp22
S'd'
p23
aaag21
aaag23
a(lp24
(lp25
(lp26
(lp27
S'x'
p28
a(lp29
(lp30
(lp31
S'l'
p32
aag21
aaS'y'
p33
aaaS'w'
p34
a(lp35
S'j'
p36
aaag32
a(lp37
(lp38
(lp39
(lp40
S'm'
p41
a(lp42
S'f'
p43
aaag33
aaS'n'
p44
a(lp45
(lp46
g15
aaS'z'
p47
a(lp48
(lp49
(lp50
(lp51
S'q'
p52
a(lp53
g17
a(lp54
g32
aaaag8
aag41
a(lp55
g32
aaag17
a(lp56
S'p'
p57
a(lp58
g12
a(lp59
g57
a(lp60
S'i'
p61
aaaaaaaag12
a(lp62
g23
aaaag47
a(lp63
(lp64
g36
a(lp65
g47
aaag43
aaaag52
a(lp66
(lp67
(lp68
(lp69
(lp70
(lp71
(lp72
g43
aag44
aaS'v'
p73
a(lp74
g57
a(lp75
(lp76
g8
aag23
a(lp77
S'o'
p78
a(lp79
(lp80
g47
aag33
aaaaaag12
aag52
a(lp81
(lp82
(lp83
g34
a(lp84
(lp85
(lp86
(lp87
g32
aag12
a(lp88
g12
a(lp89
(lp90
g57
a(lp91
g33
aaag12
a(lp92
g15
aaaaag57
a(lp93
(lp94
(lp95
(lp96
g34
aag21
aag23
aag12
aaag23
a(lp97
(lp98
g41
aag36
a(lp99
(lp100
(lp101
(lp102
(lp103
g15
aag32
a(lp104
g33
a(lp105
g78
aaaag33
a(lp106
(lp107
g47
aaS'h'
p108
aaag23
a(lp109
(lp110
g73
a(lp111
(lp112
(lp113
(lp114
(lp115
g21
aag11
aag12
aag47
a(lp116
g12
a(lp117
g15
a(lp118
g57
aaaaag33
a(lp119
g57
aaaag78
a(lp120
g47
a(lp121
(lp122
g52
a(lp123
(lp124
g12
a(lp125
g15
aaag21
aaag23
aaaaag28
a(lp126
(lp127
g57
aag23
aaaaaag23
a(lp128
g32
a(lp129
(lp130
g17
aag57
a(lp131
g23
aaaaag78
a(lp132
(lp133
(lp134
g52
a(lp135
g73
a(lp136
(lp137
(lp138
g34
a(lp139
S'u'
p140
aaag78
aag23
a(lp141
(lp142
g34
a(lp143
(lp144
g73
aag52
a(lp145
g140
aaaag73
a(lp146
(lp147
g34
aag78
aaaaaag23
aag52
a(lp148
(lp149
(lp150
g140
aag34
a(lp151
g73
a(lp152
g23
aaaag78
a(lp153
g140
aaaaaag52
a(lp154
(lp155
(lp156
(lp157
(lp158
g34
a(lp159
g73
aaag78
a(lp160
(lp161
g23
a(lp162
g73
aaag52
aaag33
a(lp163
g78
aaag34
a(lp164
(lp165
(lp166
(lp167
(lp168
(lp169
g73
a(lp170
(lp171
g23
aag33
aaag52
a(lp172
(lp173
(lp174
(lp175
(lp176
g34
aag73
aag78
aag23
aag33
a(lp177
g52
aaaag73
a(lp178
(lp179
(lp180
g34
aag140
aag108
aaag57
a(lp181
(lp182
(lp183
g73
a(lp184
g34
aaag52
a(lp185
g33
aaag57
a(lp186
g108
a(lp187
(lp188
g34
aag73
aaaaag33
a(lp189
g52
a(lp190
(lp191
(lp192
g34
a(lp193
g73
aaag57
a(lp194
g108
a(lp195
g33
aaaag52
a(lp196
(lp197
g34
aag73
aaaaag57
a(lp198
(lp199
(lp200
(lp201
g108
aag33
a(lp202
g34
aaag73
a(lp203
g52
a(lp204
(lp205
g33
aag108
a(lp206
g57
a(lp207
g34
aaaaaag73
aaaag52
a(lp208
(lp209
(lp210
g33
a(lp211
(lp212
g34
aag73
aaag57
a(lp213
(lp214
g108
aag33
a(lp215
(lp216
g52
aag34
a(lp217
g73
aaaaag57
a(lp218
(lp219
(lp220
(lp221
(lp222
(lp223
g108
aag33
a(lp224
g52
a(lp225
(lp226
g34
aag73
a(lp227
g33
aaaaag108
a(lp228
g57
aaag73
a(lp229
(lp230
g34
aag52
a(lp231
g33
a(lp232
(lp233
g34
aag73
a(lp234
g108
aaaaaag57
a(lp235
g33
aaag34
a(lp236
g73
a(lp237
g52
a(lp238
(lp239
g33
aag34
aaaaaaaag73
a(lp240
(lp241
(lp242
(lp243
(lp244
(lp245
g57
aag108
aag33
aag34
a(lp246
(lp247
g73
a(lp248
g52
a(lp249
g33
aaaag73
a(lp250
(lp251
g34
aag57
a(lp252
(lp253
(lp254
g108
aag33
a(lp255
(lp256
g34
a(lp257
g52
aaag73
aaag33
a(lp258
g57
aaaaaag34
a(lp259
(lp260
(lp261
(lp262
(lp263
(lp264
(lp265
g73
aag108
aag33
a(lp266
(lp267
g52
aag34
aaag73
a(lp268
(lp269
g108
a(lp270
g57
aaag33
aaag52
a(lp271
g34
aaag73
a(lp272
(lp273
(lp274
(lp275
g33
aag108
aag57
aag73
aaag34
a(lp276
(lp277
g52
a(lp278
g33
a(lp279
(lp280
g34
a(lp281
g73
a(lp282
g57
aaaag108
a(lp283
(lp284
g33
a(lp285
(lp286
(lp287
(lp288
(lp289
g52
aag34
aag73
aag108
aag57
a(lp290
(lp291
g33
aag52
a(lp292
g34
a(lp293
g73
aaaaaag108
a(lp294
(lp295
(lp296
(lp297
g33
aag57
a(lp298
g34
a(lp299
g52
aaaag73
aag33
a(lp300
(lp301
(lp302
g57
aag108
a(lp303
g34
a(lp304
g73
a(lp305
g52
aaaaag33
aaaaaaag57
a(lp306
(lp307
g108
aag34
a(lp308
(lp309
(lp310
g73
aag33
aag52
a(lp311
g47
a(lp312
(lp313
(lp314
g23
aag33
aaS'g'
p315
a(lp316
g47
aaaaaaaaag33
a(lp317
(lp318
(lp319
(lp320
g23
aag47
a(lp321
(lp322
g315
aag33
a(lp323
g23
aaaag47
a(lp324
(lp325
(lp326
g78
aag33
a(lp327
(lp328
(lp329
(lp330
(lp331
g315
aag47
aag23
a(lp332
g78
aaag33
a(lp333
(lp334
(lp335
(lp336
g315
aag47
aag33
aag23
a(lp337
(lp338
g78
aag47
aaaag315
aaag33
a(lp339
g47
aaaag73
a(lp340
(lp341
g78
a(lp342
g23
a(lp343
g33
aaaag47
a(lp344
(lp345
g73
aag23
a(lp346
g78
aaaaaaaag33
a(lp347
(lp348
(lp349
(lp350
(lp351
g52
aag47
aag73
a(lp352
g78
aaag33
a(lp353
g23
a(lp354
g52
aaaag47
a(lp355
(lp356
(lp357
(lp358
(lp359
(lp360
g73
aag33
a(lp361
g23
aaag78
a(lp362
(lp363
g47
a(lp364
g73
aaag52
a(lp365
(lp366
(lp367
g33
aag73
aag47
a(lp368
g78
aaaaag23
a(lp369
(lp370
g33
a(lp371
(lp372
g52
aag73
a(lp373
g47
aaaag78
a(lp374
(lp375
(lp376
g23
aag33
aag52
a(lp377
(lp378
g47
aag33
a(lp379
g23
aaaaaag78
a(lp380
(lp381
(lp382
(lp383
(lp384
(lp385
(lp386
(lp387
g47
aag73
aag52
a(lp388
(lp389
g33
aag78
a(lp390
g47
aaaag73
a(lp391
(lp392
g23
aag33
aaag52
a(lp393
g73
aaag47
a(lp394
(lp395
(lp396
g78
aag23
aag108
a(lp397
(lp398
(lp399
g57
a(lp400
g21
aaag32
a(lp401
g52
aaag15
a(lp402
(lp403
g11
aag57
a(lp404
g32
aaaaaag15
a(lp405
(lp406
(lp407
(lp408
(lp409
g52
a(lp410
g21
a(lp411
g11
a(lp412
g57
aaaaag32
a(lp413
(lp414
(lp415
(lp416
g15
aag52
aag21
a(lp417
g43
aaag108
aaag15
a(lp418
(lp419
g52
aag33
a(lp420
g15
a(lp421
g43
aaaaag32
a(lp422
(lp423
g21
aag57
aaag52
aaag33
a(lp424
(lp425
g15
aag32
a(lp426
(lp427
(lp428
(lp429
g108
a(lp430
(lp431
g11
a(lp432
g52
aaag15
aaag33
aag32
aag43
aaaaag21
a(lp433
(lp434
(lp435
(lp436
g108
aag52
aag15
aag32
a(lp437
(lp438
(lp439
g52
a(lp440
(lp441
(lp442
g21
aag43
aag33
aaag44
a(lp443
(lp444
g15
aag32
a(lp445
g108
aaaag21
aaaaaag43
a(lp446
(lp447
g52
a(lp448
(lp449
(lp450
g44
aag33
aag15
aaag57
a(lp451
(lp452
(lp453
(lp454
(lp455
g32
aag11
a(lp456
(lp457
g108
aag21
aaag43
a(lp458
(lp459
g52
a(lp460
g44
a(lp461
g33
aaaag15
a(lp462
(lp463
g32
aag21
a(lp464
(lp465
(lp466
g11
a(lp467
g108
a(lp468
g57
aaaag23
a(lp469
g21
aaag78
a(lp470
(lp471
g52
a(lp472
g15
aaag23
aaaaaag78
a(lp473
(lp474
g73
aag34
a(lp475
g52
aaaag15
a(lp476
(lp477
(lp478
(lp479
(lp480
(lp481
(lp482
(lp483
g78
a(lp484
g23
aaag73
a(lp485
g52
a(lp486
(lp487
(lp488
g140
aag108
aag57
a(lp489
(lp490
g43
aag52
aaaaag15
aag78
a(lp491
(lp492
(lp493
(lp494
g73
a(lp495
g140
aaag15
aag52
a(lp496
(lp497
g23
a(lp498
g78
aaag52
a(lp499
g78
a(lp500
g78
a(lp501
g23
aaaaaag140
a(lp502
(lp503
g52
a(lp504
g33
aaag78
a(lp505
(lp506
g73
aag140
a(lp507
(lp508
g23
a(lp509
g52
aaag33
a(lp510
(lp511
g140
aag73
a(lp512
(lp513
g78
a(lp514
g23
aaag15
a(lp515
(lp516
g52
a(lp517
g73
aaag140
a(lp518
g78
aaaaaaaaaag15
a(lp519
(lp520
g23
a(lp521
(lp522
(lp523
g52
aag73
aag43
a(lp524
g36
aaaag78
a(lp525
(lp526
(lp527
g23
aag73
a(lp528
(lp529
g52
aag36
aaag34
a(lp530
(lp531
g73
aag23
a(lp532
g78
aaaaaag140
aag15
a(lp533
(lp534
(lp535
g52
aag73
a(lp536
(lp537
g140
aag78
a(lp538
g23
a(lp539
g15
aaaaag52
a(lp540
g73
aaaag140
a(lp541
(lp542
(lp543
(lp544
g15
a(lp545
g78
aaag23
a(lp546
(lp547
(lp548
(lp549
g73
aag52
a(lp550
(lp551
g34
aag15
aaag78
aag23
a(lp552
(lp553
g73
aag52
a(lp554
g15
aaaaag78
a(lp555
(lp556
g23
a(lp557
g43
aaag57
a(lp558
(lp559
g43
a(lp560
g52
a(lp561
g15
aaaag140
aaaag78
a(lp562
(lp563
(lp564
(lp565
(lp566
g73
a(lp567
(lp568
g23
a(lp569
g52
aaag33
aaag315
a(lp570
(lp571
g108
aag57
a(lp572
(lp573
g47
a(lp574
g57
a(lp575
(lp576
(lp577
g11
aag52
aag140
aaaag57
aaaag73
aag34
aag61
a(lp578
(lp579
(lp580
(lp581
g78
a(lp582
g44
a(lp583
(lp584
g33
a(lp585
g315
aaag23
aaaag78
aag73
aag52
a(lp586
(lp587
(lp588
g57
aag43
a(lp589
g52
a(lp590
g108
aaaag47
a(lp591
(lp592
g52
aag140
aaaaaaaaaag78
a(lp593
(lp594
(lp595
g73
aag23
aag78
a(lp596
(lp597
g23
a(lp598
g52
aaag33
a(lp599
g23
a(lp600
g78
aaaaaag73
a(lp601
(lp602
(lp603
(lp604
(lp605
(lp606
g52
a(lp607
g23
aaag34
aag78
aag52
a(lp608
S'b'
p609
a(lp610
(lp611
g108
aag57
aaaag8
a(lp612
(lp613
(lp614
g12
aag36
a(lp615
g43
aaag21
a(lp616
(lp617
(lp618
g47
aag11
aag32
a(lp619
g23
a(lp620
g78
aaaaaag52
a(lp621
(lp622
(lp623
(lp624
(lp625
g140
a(lp626
(lp627
g73
aag609
aaag108
a(lp628
(lp629
g57
aag11
aaag47
a(lp630
(lp631
g21
aag43
a(lp632
S'k'
p633
aaaag61
a(lp634
(lp635
g44
aag315
a(lp636
(lp637
g28
aag33
a(lp638
(lp639
(lp640
g41
a(lp641
(lp642
g23
aag78
aaag52
a(lp643
(lp644
(lp645
g73
aag140
aag15
aaag609
a(lp646
(lp647
(lp648
g8
aag47
a(lp649
(lp650
g57
aag43
a(lp651
g21
aaaag8
aaaaaag78
a(lp652
(lp653
(lp654
(lp655
g52
aag34
a(lp656
g23
aaag78
a(lp657
g52
aaag73
a(lp658
(lp659
(lp660
(lp661
(lp662
(lp663
(lp664
(lp665
g78
a(lp666
(lp667
g52
aag140
aaag57
a(lp668
(lp669
g47
a(lp670
g52
aaag140
a(lp671
g23
aaaag78
a(lp672
(lp673
(lp674
(lp675
(lp676
g52
aag78
a(lp677
(lp678
g52
aag78
aaag52
aag78
aag52
a(lp679
g78
a(lp680
(lp681
g52
aag108
a(lp682
(lp683
g47
a(lp684
(lp685
g57
aag8
a(lp686
g21
aaaag315
aaaaaag33
a(lp687
(lp688
g78
a(lp689
g52
aaag140
a(lp690
(lp691
g52
a(lp692
g57
a(lp693
g47
aaaag108
a(lp694
(lp695
(lp696
g47
aag78
a(lp697
g73
aaag52
aaaaag140
a(lp698
g57
a(lp699
g28
a(lp700
g33
aaaaag315
a(lp701
(lp702
(lp703
g73
a(lp704
g78
aaag73
a(lp705
g78
a(lp706
g73
aaaag78
a(lp707
(lp708
g73
aag52
a(lp709
g140
aaaaag57
a(lp710
(lp711
(lp712
(lp713
g52
aag57
aag140
a(lp714
g52
aaag57
a(lp715
g140
aaaag34
a(lp716
(lp717
(lp718
(lp719
(lp720
(lp721
g47
a(lp722
g47
aaag73
aag21
aag33
a(lp723
(lp724
(lp725
(lp726
g12
aag15
a(lp727
g57
aaag52
a(lp728
g34
a(lp729
g47
a(lp730
g47
aaaaag8
a(lp731
(lp732
(lp733
(lp734
g11
aag32
aag33
aag57
aaaag34
aag23
aaaaaa.