(lp0
(lp1
(lp2
(lp3
(lp4
S'c'
p5
a(lp6
(lp7
S'a'
p8
aaS'e'
p9
aaaS's'
p10
a(lp11
g8
aaaS'r'
p12
a(lp13
g9
a(lp14
(lp15
g10
a(lp16
S't'
p17
aaaS'd'
p18
aaaag17
a(lp19
(lp20
(lp21
(lp22
(lp23
(lp24
(lp25
g18
a(lp26
(lp27
S'x'
p28
aaS'l'
p29
aaag17
a(lp30
(lp31
S'y'
p32
aaS'w'
p33
a(lp34
S'j'
p35
aaaag29
a(lp36
S'm'
p37
a(lp38
S'f'
p39
aaaag32
aaS'n'
p40
a(lp41
(lp42
(lp43
(lp44
g10
aaS'z'
p45
a(lp46
S'q'
p47
aaag12
a(lp48
g29
a(lp49
g5
a(lp50
g37
aaaaag29
a(lp51
(lp52
g12
a(lp53
(lp54
(lp55
S'p'
p56
a(lp57
g9
a(lp58
g56
aaaaS'i'
p59
a(lp60
g9
a(lp61
g18
a(lp62
g45
aaaaag35
aaag45
aaaag39
a(lp63
(lp64
(lp65
(lp66
(lp67
g47
aag39
aag40
a(lp68
(lp69
S'v'
p70
aag56
a(lp71
g5
a(lp72
g18
aaaaaS'o'
p73
a(lp74
(lp75
(lp76
(lp77
g45
aag32
a(lp78
g9
aaag47
a(lp79
(lp80
(lp81
(lp82
g33
a(lp83
(lp84
g29
aag9
a(lp85
g9
aaaag56
a(lp86
g32
a(lp87
g9
aaaag10
a(lp88
(lp89
(lp90
g56
aag33
aag17
a(lp91
g18
aaaag9
a(lp92
(lp93
g18
a(lp94
g37
aaag35
a(lp95
g10
a(lp96
g29
aaaaaag32
a(lp97
(lp98
(lp99
g73
a(lp100
(lp101
g32
aag45
a(lp102
(lp103
S'h'
p104
aag18
a(lp105
g70
aaaaag17
a(lp106
(lp107
(lp108
g8
a(lp109
(lp110
g9
a(lp111
g45
a(lp112
g9
aaaag10
aaag56
a(lp113
g32
aaag56
a(lp114
g73
aaaag45
a(lp115
(lp116
g47
a(lp117
(lp118
g9
a(lp119
(lp120
g10
aag17
a(lp121
g18
aaaag28
aaag56
aaaaag18
a(lp122
g18
aaaag29
a(lp123
(lp124
(lp125
(lp126
(lp127
(lp128
(lp129
(lp130
g12
aag56
aag18
a(lp131
(lp132
g73
aag47
a(lp133
(lp134
g70
aag33
aaaaS'u'
p135
a(lp136
g73
a(lp137
g18
aaaag33
a(lp138
(lp139
g70
a(lp140
(lp141
g47
a(lp142
g135
a(lp143
(lp144
g70
aag33
aaaag73
a(lp145
(lp146
(lp147
(lp148
g18
aag47
aag135
a(lp149
g33
aaag70
aaaag18
a(lp150
g73
a(lp151
(lp152
g135
a(lp153
g47
aaag33
a(lp154
(lp155
g70
aag73
a(lp156
(lp157
g18
aag70
a(lp158
g47
a(lp159
g32
aaaaaaaaag73
a(lp160
(lp161
(lp162
g33
a(lp163
(lp164
(lp165
g70
a(lp166
(lp167
g18
aag32
aaag47
aag33
aaag70
aag73
a(lp168
g18
aaaag32
a(lp169
(lp170
(lp171
(lp172
(lp173
g47
a(lp174
(lp175
g70
a(lp176
(lp177
(lp178
g33
aag135
a(lp179
(lp180
g104
aag56
a(lp181
g70
a(lp182
g33
aaaaag47
a(lp183
(lp184
g32
a(lp185
g56
aaag104
aaaag33
a(lp186
g70
aaaag32
a(lp187
(lp188
(lp189
(lp190
g47
a(lp191
g33
aaag70
aag56
a(lp192
g104
a(lp193
(lp194
g32
aag47
aaaag33
a(lp195
g70
aaaag56
a(lp196
(lp197
(lp198
g104
a(lp199
(lp200
(lp201
(lp202
g32
aag33
a(lp203
g70
a(lp204
(lp205
(lp206
g47
aag32
aag104
a(lp207
g56
a(lp208
g33
aaaaaag70
a(lp209
(lp210
(lp211
g47
aag32
aag33
a(lp212
(lp213
g70
aag56
a(lp214
g104
a(lp215
g32
aaaaaag47
aaag33
aag70
a(lp216
(lp217
(lp218
(lp219
g56
aag104
aag32
a(lp220
g47
a(lp221
g33
a(lp222
(lp223
g70
aag32
aaaaag104
a(lp224
g56
aaaaag70
a(lp225
(lp226
(lp227
(lp228
(lp229
(lp230
g33
aag47
aag32
aag33
a(lp231
g70
aaag104
a(lp232
(lp233
(lp234
g56
aag32
aag33
a(lp235
g70
aaaag47
a(lp236
(lp237
(lp238
g32
aag33
a(lp239
g70
aaag56
aaaag104
a(lp240
(lp241
(lp242
(lp243
g32
a(lp244
g33
aaag70
a(lp245
g47
aaag32
a(lp246
g70
aaag33
a(lp247
(lp248
(lp249
g56
aag104
aag32
a(lp250
(lp251
(lp252
(lp253
(lp254
g33
a(lp255
(lp256
g47
aag70
aaag32
a(lp257
(lp258
g56
a(lp259
g33
aaag70
a(lp260
g104
a(lp261
(lp262
g32
aag47
a(lp263
g33
aaaaaag70
a(lp264
(lp265
(lp266
(lp267
(lp268
g104
aag56
aag32
a(lp269
g47
aaag33
a(lp270
g70
aaag32
a(lp271
g104
aaaag56
a(lp272
(lp273
g70
a(lp274
g33
aaag47
aaag32
a(lp275
g33
aaaaaaag70
a(lp276
(lp277
g56
a(lp278
(lp279
(lp280
g104
aag32
a(lp281
(lp282
(lp283
(lp284
(lp285
g47
aag33
aag70
a(lp286
(lp287
g104
aag56
aaag32
a(lp288
g47
aaag33
a(lp289
(lp290
g70
aag104
a(lp291
g32
aaaaag56
a(lp292
g33
a(lp293
g47
aaaaag70
a(lp294
(lp295
g32
aag56
a(lp296
(lp297
(lp298
(lp299
g104
aag33
a(lp300
g70
aaag47
a(lp301
g32
aaag56
a(lp302
(lp303
(lp304
g104
aag33
a(lp305
g70
aaag32
a(lp306
(lp307
g47
a(lp308
g45
aaag18
a(lp309
g32
aaaaaaaaaaS'g'
p310
a(lp311
(lp312
(lp313
(lp314
(lp315
(lp316
(lp317
(lp318
g45
aag32
a(lp319
(lp320
g18
aag45
a(lp321
(lp322
g310
a(lp323
g32
a(lp324
(lp325
g18
aag45
aaaag73
aaaag32
a(lp326
(lp327
(lp328
(lp329
(lp330
g310
a(lp331
g45
aaag18
a(lp332
g73
aaag32
a(lp333
(lp334
(lp335
g310
a(lp336
(lp337
g45
aag32
a(lp338
g18
aaaag73
aag45
a(lp339
g310
a(lp340
g32
aaaaag45
a(lp341
(lp342
(lp343
(lp344
g70
a(lp345
(lp346
(lp347
g73
a(lp348
g18
aaag32
aag45
aaag70
a(lp349
(lp350
g18
a(lp351
(lp352
(lp353
g73
aag32
aag47
aaag45
a(lp354
(lp355
g70
a(lp356
(lp357
g73
aag32
aaag18
aaaag47
a(lp358
g45
aaag70
a(lp359
(lp360
(lp361
g32
aag18
a(lp362
(lp363
g73
aag45
aaag70
a(lp364
g47
aaaaag32
a(lp365
(lp366
(lp367
(lp368
(lp369
(lp370
(lp371
g70
aag45
aag73
a(lp372
g18
a(lp373
g32
aaaag47
aag70
a(lp374
(lp375
(lp376
(lp377
g45
aag73
aag18
a(lp378
(lp379
(lp380
g32
aag47
aag45
a(lp381
g32
aaaag18
a(lp382
(lp383
g73
aag45
aaaag70
a(lp384
(lp385
g47
aag32
a(lp386
g73
aaaag45
a(lp387
(lp388
(lp389
g70
aag18
a(lp390
g32
aaag47
a(lp391
(lp392
g70
aag45
a(lp393
(lp394
g73
aag18
aaaaaaag104
a(lp395
g56
a(lp396
(lp397
g17
a(lp398
g29
aaag47
a(lp399
(lp400
g10
aag8
a(lp401
g56
aaaaaag29
a(lp402
(lp403
(lp404
(lp405
(lp406
(lp407
(lp408
g10
a(lp409
g47
aaag17
aag8
a(lp410
g56
aaag29
a(lp411
(lp412
(lp413
g10
aag47
aag17
a(lp414
(lp415
g39
aag104
aaaag10
a(lp416
(lp417
(lp418
(lp419
(lp420
g47
a(lp421
g32
aaag10
a(lp422
(lp423
g39
aag29
aaag17
aag56
a(lp424
g47
aaag32
a(lp425
(lp426
g10
a(lp427
(lp428
g29
a(lp429
g104
aaag8
a(lp430
g47
aaaag10
a(lp431
(lp432
g32
a(lp433
(lp434
g29
aag39
a(lp435
g17
aaaag104
a(lp436
g47
aaaaaag10
a(lp437
(lp438
g29
a(lp439
(lp440
g47
aag17
a(lp441
(lp442
g39
aag32
aaaag40
a(lp443
(lp444
g10
aag29
a(lp445
(lp446
g104
aag17
a(lp447
(lp448
g39
a(lp449
g47
aaag40
aaaaaag32
a(lp450
(lp451
(lp452
g10
aag56
a(lp453
g29
aaag8
a(lp454
(lp455
(lp456
g104
aag17
aag39
a(lp457
(lp458
g47
aag40
a(lp459
g32
a(lp460
(lp461
g10
aag29
aaaaaaaag17
a(lp462
(lp463
(lp464
(lp465
(lp466
g8
aag104
a(lp467
(lp468
(lp469
g56
aag18
aag17
a(lp470
g73
aaaag47
a(lp471
g10
a(lp472
g18
aaaag73
a(lp473
(lp474
(lp475
g70
aag33
a(lp476
(lp477
g47
aag10
a(lp478
g73
aaaag18
a(lp479
(lp480
(lp481
g70
aag47
aag135
a(lp482
(lp483
g104
a(lp484
g56
aaag39
a(lp485
g47
a(lp486
g10
a(lp487
g73
aaaaaaaag70
aaag135
a(lp488
(lp489
(lp490
(lp491
(lp492
g10
a(lp493
(lp494
g47
a(lp495
(lp496
g18
aag73
aaag47
aaag73
aag73
a(lp497
g18
aaag135
a(lp498
g47
a(lp499
(lp500
(lp501
g32
aag73
aag70
aaaag135
a(lp502
(lp503
(lp504
(lp505
(lp506
(lp507
(lp508
(lp509
g18
aag47
a(lp510
g32
aaag135
aag70
aag73
aag18
a(lp511
(lp512
(lp513
g10
aag47
a(lp514
(lp515
g70
aag135
aaag73
a(lp516
g10
a(lp517
g18
aaaaag47
aag70
a(lp518
g39
a(lp519
g35
a(lp520
g73
aaaaaaag18
a(lp521
(lp522
(lp523
(lp524
(lp525
g70
aag47
a(lp526
(lp527
(lp528
g35
a(lp529
(lp530
g33
a(lp531
g70
aaag18
aaag73
a(lp532
(lp533
(lp534
(lp535
g135
a(lp536
g10
aaag47
aag70
aag135
a(lp537
(lp538
(lp539
g73
a(lp540
g18
a(lp541
g10
aaaag47
a(lp542
(lp543
g70
aag135
a(lp544
g10
aaaag73
a(lp545
g18
a(lp546
g70
aaaaaag47
a(lp547
(lp548
(lp549
g33
a(lp550
(lp551
g10
a(lp552
(lp553
(lp554
g73
aag18
aag70
aaag47
aaag10
aag73
a(lp555
(lp556
(lp557
(lp558
g18
aag39
a(lp559
g56
a(lp560
g39
a(lp561
g47
aaaaag10
aag135
aaaaag73
a(lp562
(lp563
(lp564
(lp565
g70
aag18
aag47
a(lp566
(lp567
(lp568
(lp569
g32
aag310
aag104
a(lp570
g56
a(lp571
g45
a(lp572
g56
aaaaag8
aaag47
a(lp573
(lp574
(lp575
g135
aag56
a(lp576
g70
aaag33
a(lp577
g59
aaaaag73
a(lp578
(lp579
(lp580
(lp581
g40
aag32
a(lp582
(lp583
(lp584
g310
a(lp585
g18
aaag73
a(lp586
g70
aaag47
a(lp587
(lp588
g56
aag39
aaaag47
a(lp589
(lp590
(lp591
g104
aag45
aag47
aaag135
a(lp592
(lp593
(lp594
(lp595
g73
aag70
a(lp596
(lp597
g18
a(lp598
(lp599
g73
aag18
aaag47
a(lp600
(lp601
g32
a(lp602
(lp603
(lp604
(lp605
g18
aag73
aag70
aag47
a(lp606
(lp607
g18
a(lp608
g33
aaag73
aaaag47
a(lp609
S'b'
p610
aaaaag104
aag56
a(lp611
(lp612
(lp613
(lp614
g5
aag9
a(lp615
(lp616
(lp617
g35
aag39
a(lp618
(lp619
(lp620
g17
a(lp621
g45
aaag8
aag29
aaag18
aaag73
a(lp622
(lp623
g47
a(lp624
(lp625
g135
a(lp626
g70
a(lp627
g610
aaaag104
a(lp628
g56
aaaag8
a(lp629
(lp630
g45
aag17
a(lp631
(lp632
g39
aaS'k'
p633
a(lp634
(lp635
(lp636
g59
aag40
aag310
a(lp637
(lp638
g28
aag32
a(lp639
(lp640
g37
aag18
aaaaaaaag73
a(lp641
(lp642
(lp643
g47
a(lp644
g70
a(lp645
g135
aaaag10
aag610
a(lp646
(lp647
(lp648
(lp649
(lp650
(lp651
(lp652
g5
aag45
a(lp653
g56
a(lp654
g39
aaaag17
a(lp655
(lp656
g5
aag73
a(lp657
g47
a(lp658
g33
aaaaag18
a(lp659
g73
aaag47
aag70
a(lp660
(lp661
(lp662
g73
aag47
a(lp663
g135
aaag56
a(lp664
g45
aaaag47
a(lp665
g135
a(lp666
(lp667
(lp668
(lp669
(lp670
g18
aag73
a(lp671
g47
aaag73
aag47
a(lp672
g73
a(lp673
g47
aaaag73
a(lp674
(lp675
(lp676
g47
aag73
a(lp677
(lp678
g47
a(lp679
g104
aaag45
aaag56
aaaaaaaaaag5
a(lp680
(lp681
g17
a(lp682
(lp683
(lp684
g310
aag32
a(lp685
g73
a(lp686
g47
a(lp687
g135
aaaaag47
a(lp688
(lp689
(lp690
g56
aag45
aag104
aaaag45
a(lp691
(lp692
(lp693
g73
aag70
a(lp694
(lp695
g47
aag135
aaag56
a(lp696
(lp697
(lp698
(lp699
(lp700
g28
aag32
a(lp701
g310
aaag70
a(lp702
(lp703
g73
aag70
a(lp704
(lp705
g73
aag70
a(lp706
g73
aaaaag70
a(lp707
(lp708
g47
a(lp709
g135
aaag56
a(lp710
(lp711
(lp712
g47
aag56
aag135
aaaag47
a(lp713
(lp714
(lp715
g56
aag135
a(lp716
g33
a(lp717
g45
aaaag45
a(lp718
(lp719
(lp720
g70
aag17
a(lp721
(lp722
g32
aag9
a(lp723
(lp724
(lp725
(lp726
g10
aag56
aag47
a(lp727
g33
aaag45
aaaag45
a(lp728
(lp729
g5
aag8
a(lp730
(lp731
(lp732
g29
a(lp733
(lp734
(lp735
g32
aag56
a(lp736
g33
a(lp737
g18
aaaag17
aaag32
a(lp738
(lp739
(lp740
(lp741
(lp742
g9
aag10
a(lp743
g56
aaag5
a(lp744
g45
a(lp745
(lp746
g45
aag28
aaaag32
a(lp747
(lp748
g56
aag59
aaag9
a(lp749
g73
aaaag45
a(lp750
(lp751
g45
aag5
aaaaaaaaaaa.